target datalayout = "e-m:e-p270:32:32-p271:32:32-p272:64:64-i64:64-i128:128-f80:128-n8:16:32:64-S128"
target triple = "x86_64-pc-linux-gnu"

%struct._zval_struct = type { %union._zend_value, %union.anon.3, %union.anon.6 }
%union._zend_value = type { i64 }
%union.anon.3 = type { i32 }
%union.anon.6 = type { i32 }
%struct._php_stream_ops = type { ptr, ptr, ptr, ptr, ptr, ptr, ptr, ptr, ptr }
%struct._php_stream = type { ptr, ptr, %struct._php_stream_filter_chain, %struct._php_stream_filter_chain, ptr, ptr, %struct._zval_struct, i16, [16 x i8], i32, ptr, ptr, ptr, ptr, i64, ptr, i64, i64, i64, i64, ptr }
%struct._php_stream_filter_chain = type { ptr, ptr, ptr }

; Function Attrs: nounwind uwtable
define i32 @_php_stream_set_option(ptr noundef %0, i32 noundef %1, i32 noundef %2, ptr noundef %3) #0 {
  %5 = alloca i32, align 4
  %6 = alloca ptr, align 8
  %7 = alloca i32, align 4
  %8 = alloca i32, align 4
  %9 = alloca ptr, align 8
  %10 = alloca i32, align 4
  store ptr %0, ptr %6, align 8
  store i32 %1, ptr %7, align 4
  store i32 %2, ptr %8, align 4
  store ptr %3, ptr %9, align 8
  store i32 -2, ptr %10, align 4
  %11 = load ptr, ptr %6, align 8
  %12 = getelementptr inbounds %struct._php_stream, ptr %11, i32 0, i32 0
  %13 = load ptr, ptr %12, align 8
  %14 = getelementptr inbounds %struct._php_stream_ops, ptr %13, i32 0, i32 8
  %15 = load ptr, ptr %14, align 8
  %16 = icmp ne ptr %15, null
  br i1 %16, label %17, label %28

17:                                               ; preds = %4
  %18 = load ptr, ptr %6, align 8
  %19 = getelementptr inbounds %struct._php_stream, ptr %18, i32 0, i32 0
  %20 = load ptr, ptr %19, align 8
  %21 = getelementptr inbounds %struct._php_stream_ops, ptr %20, i32 0, i32 8
  %22 = load ptr, ptr %21, align 8
  %23 = load ptr, ptr %6, align 8
  %24 = load i32, ptr %7, align 4
  %25 = load i32, ptr %8, align 4
  %26 = load ptr, ptr %9, align 8
  %27 = call i32 %22(ptr noundef %23, i32 noundef %24, i32 noundef %25, ptr noundef %26)
  store i32 %27, ptr %10, align 4
  br label %28

28:                                               ; preds = %17, %4
  %29 = load i32, ptr %10, align 4
  %30 = icmp eq i32 %29, -2
  br i1 %30, label %31, label %74

31:                                               ; preds = %28
  %32 = load i32, ptr %7, align 4
  switch i32 %32, label %72 [
    i32 5, label %33
    i32 2, label %51
  ]

33:                                               ; preds = %31
  %34 = load ptr, ptr %6, align 8
  %35 = getelementptr inbounds %struct._php_stream, ptr %34, i32 0, i32 19
  %36 = load i64, ptr %35, align 8
  %37 = icmp ugt i64 %36, 2147483647
  br i1 %37, label %38, label %39

38:                                               ; preds = %33
  br label %44

39:                                               ; preds = %33
  %40 = load ptr, ptr %6, align 8
  %41 = getelementptr inbounds %struct._php_stream, ptr %40, i32 0, i32 19
  %42 = load i64, ptr %41, align 8
  %43 = trunc i64 %42 to i32
  br label %44

44:                                               ; preds = %39, %38
  %45 = phi i32 [ 2147483647, %38 ], [ %43, %39 ]
  store i32 %45, ptr %10, align 4
  %46 = load i32, ptr %8, align 4
  %47 = sext i32 %46 to i64
  %48 = load ptr, ptr %6, align 8
  %49 = getelementptr inbounds %struct._php_stream, ptr %48, i32 0, i32 19
  store i64 %47, ptr %49, align 8
  %50 = load i32, ptr %10, align 4
  store i32 %50, ptr %5, align 4
  br label %76

51:                                               ; preds = %31
  %52 = load i32, ptr %8, align 4
  %53 = icmp eq i32 %52, 0
  br i1 %53, label %54, label %59

54:                                               ; preds = %51
  %55 = load ptr, ptr %6, align 8
  %56 = getelementptr inbounds %struct._php_stream, ptr %55, i32 0, i32 9
  %57 = load i32, ptr %56, align 4
  %58 = or i32 %57, 2
  store i32 %58, ptr %56, align 4
  br label %71

59:                                               ; preds = %51
  %60 = load ptr, ptr %6, align 8
  %61 = getelementptr inbounds %struct._php_stream, ptr %60, i32 0, i32 9
  %62 = load i32, ptr %61, align 4
  %63 = and i32 %62, 2
  %64 = icmp ne i32 %63, 0
  br i1 %64, label %65, label %70

65:                                               ; preds = %59
  %66 = load ptr, ptr %6, align 8
  %67 = getelementptr inbounds %struct._php_stream, ptr %66, i32 0, i32 9
  %68 = load i32, ptr %67, align 4
  %69 = xor i32 %68, 2
  store i32 %69, ptr %67, align 4
  br label %70

70:                                               ; preds = %65, %59
  br label %71

71:                                               ; preds = %70, %54
  store i32 0, ptr %10, align 4
  br label %73

72:                                               ; preds = %31
  br label %73

73:                                               ; preds = %72, %71
  br label %74

74:                                               ; preds = %73, %28
  %75 = load i32, ptr %10, align 4
  store i32 %75, ptr %5, align 4
  br label %76

76:                                               ; preds = %74, %44
  %77 = load i32, ptr %5, align 4
  ret i32 %77
}