; Function Attrs: nounwind uwtable
define i32 @_php_stream_set_option(ptr noundef %0, i32 noundef %1, i32 noundef %2, ptr noundef %3) local_unnamed_addr #2 {
  %5 = load ptr, ptr %0, align 8
  %6 = getelementptr inbounds i8, ptr %5, i64 64
  %7 = load ptr, ptr %6, align 8
  %.not = icmp eq ptr %7, null
  br i1 %.not, label %.thread, label %8

8:                                                ; preds = %4
  %9 = tail call i32 %7(ptr noundef nonnull %0, i32 noundef %1, i32 noundef %2, ptr noundef %3) #27
  %10 = icmp eq i32 %9, -2
  br i1 %10, label %.thread, label %25

.thread:                                          ; preds = %4, %8
  switch i32 %1, label %25 [
    i32 5, label %11
    i32 2, label %15
  ]

11:                                               ; preds = %.thread
  %12 = getelementptr inbounds i8, ptr %0, i64 192
  %13 = load i64, ptr %12, align 8
  %spec.select23 = tail call i64 @llvm.umin.i64(i64 %13, i64 2147483647)
  %spec.select = trunc i64 %spec.select23 to i32
  %14 = sext i32 %2 to i64
  store i64 %14, ptr %12, align 8
  br label %25

15:                                               ; preds = %.thread
  %16 = icmp eq i32 %2, 0
  %17 = getelementptr inbounds i8, ptr %0, i64 116
  %18 = load i32, ptr %17, align 4
  br i1 %16, label %19, label %21

19:                                               ; preds = %15
  %20 = or i32 %18, 2
  store i32 %20, ptr %17, align 4
  br label %25

21:                                               ; preds = %15
  %22 = and i32 %18, 2
  %.not21 = icmp eq i32 %22, 0
  br i1 %.not21, label %25, label %23

23:                                               ; preds = %21
  %24 = and i32 %18, -3
  store i32 %24, ptr %17, align 4
  br label %25

25:                                               ; preds = %8, %.thread, %21, %23, %19, %11
  %.018 = phi i32 [ %spec.select, %11 ], [ -2, %.thread ], [ %9, %8 ], [ 0, %21 ], [ 0, %23 ], [ 0, %19 ]
  ret i32 %.018
}